target datalayout = "e-m:e-p270:32:32-p271:32:32-p272:64:64-i64:64-i128:128-f80:128-n8:16:32:64-S128"
target triple = "x86_64-pc-linux-gnu"

%"class.llvm::Dependence" = type { ptr, ptr, ptr, ptr, ptr }
%"class.std::unique_ptr.176" = type { %"struct.std::__uniq_ptr_data.177" }
%"struct.std::__uniq_ptr_data.177" = type { %"class.std::__uniq_ptr_impl.178" }
%"class.std::__uniq_ptr_impl.178" = type { %"class.std::tuple.179" }
%"class.std::tuple.179" = type { %"struct.std::_Tuple_impl.180" }
%"struct.std::_Tuple_impl.180" = type { %"struct.std::_Head_base.183" }
%"struct.std::_Head_base.183" = type { ptr }
%"class.llvm::FullDependence" = type { %"class.llvm::Dependence", i16, i8, i8, %"class.std::unique_ptr.176" }
%"struct.llvm::Dependence::DVEntry" = type { i8, ptr }

; Function Attrs: mustprogress nounwind uwtable
define linkonce_odr hidden noundef nonnull align 8 dereferenceable(8) ptr @_ZNSt10_Head_baseILm0EPN4llvm10Dependence7DVEntryELb0EE7_M_headERKS4_(ptr noundef nonnull align 8 dereferenceable(8) %0) #1 comdat align 2 {
  %2 = alloca ptr, align 8
  store ptr %0, ptr %2, align 8
  %3 = load ptr, ptr %2, align 8
  %4 = getelementptr inbounds nuw %"struct.std::_Head_base.183", ptr %3, i32 0, i32 0
  ret ptr %4
}

; Function Attrs: mustprogress nounwind uwtable
define linkonce_odr hidden noundef nonnull align 8 dereferenceable(8) ptr @_ZNSt11_Tuple_implILm0EJPN4llvm10Dependence7DVEntryESt14default_deleteIA_S2_EEE7_M_headERKS7_(ptr noundef nonnull align 8 dereferenceable(8) %0) #1 comdat align 2 {
  %2 = alloca ptr, align 8
  store ptr %0, ptr %2, align 8
  %3 = load ptr, ptr %2, align 8
  %4 = call noundef nonnull align 8 dereferenceable(8) ptr @_ZNSt10_Head_baseILm0EPN4llvm10Dependence7DVEntryELb0EE7_M_headERKS4_(ptr noundef nonnull align 8 dereferenceable(8) %3) #2
  ret ptr %4
}

; Function Attrs: mustprogress nounwind uwtable
define linkonce_odr noundef nonnull align 8 dereferenceable(8) ptr @_ZSt12__get_helperILm0EPN4llvm10Dependence7DVEntryEJSt14default_deleteIA_S2_EEERKT0_RKSt11_Tuple_implIXT_EJS7_DpT1_EE(ptr noundef nonnull align 8 dereferenceable(8) %0) #1 comdat {
  %2 = alloca ptr, align 8
  store ptr %0, ptr %2, align 8
  %3 = load ptr, ptr %2, align 8
  %4 = call noundef nonnull align 8 dereferenceable(8) ptr @_ZNSt11_Tuple_implILm0EJPN4llvm10Dependence7DVEntryESt14default_deleteIA_S2_EEE7_M_headERKS7_(ptr noundef nonnull align 8 dereferenceable(8) %3) #2
  ret ptr %4
}

; Function Attrs: mustprogress nounwind uwtable
define linkonce_odr noundef nonnull align 8 dereferenceable(8) ptr @_ZSt3getILm0EJPN4llvm10Dependence7DVEntryESt14default_deleteIA_S2_EEERKNSt13tuple_elementIXT_ESt5tupleIJDpT0_EEE4typeERKSB_(ptr noundef nonnull align 8 dereferenceable(8) %0) #1 comdat {
  %2 = alloca ptr, align 8
  store ptr %0, ptr %2, align 8
  %3 = load ptr, ptr %2, align 8
  %4 = call noundef nonnull align 8 dereferenceable(8) ptr @_ZSt12__get_helperILm0EPN4llvm10Dependence7DVEntryEJSt14default_deleteIA_S2_EEERKT0_RKSt11_Tuple_implIXT_EJS7_DpT1_EE(ptr noundef nonnull align 8 dereferenceable(8) %3) #2
  ret ptr %4
}

; Function Attrs: mustprogress nounwind uwtable
define linkonce_odr hidden noundef ptr @_ZNKSt15__uniq_ptr_implIN4llvm10Dependence7DVEntryESt14default_deleteIA_S2_EE6_M_ptrEv(ptr noundef nonnull align 8 dereferenceable(8) %0) #1 comdat align 2 {
  %2 = alloca ptr, align 8
  store ptr %0, ptr %2, align 8
  %3 = load ptr, ptr %2, align 8
  %4 = getelementptr inbounds nuw %"class.std::__uniq_ptr_impl.178", ptr %3, i32 0, i32 0
  %5 = call noundef nonnull align 8 dereferenceable(8) ptr @_ZSt3getILm0EJPN4llvm10Dependence7DVEntryESt14default_deleteIA_S2_EEERKNSt13tuple_elementIXT_ESt5tupleIJDpT0_EEE4typeERKSB_(ptr noundef nonnull align 8 dereferenceable(8) %4) #2
  %6 = load ptr, ptr %5, align 8
  ret ptr %6
}

; Function Attrs: mustprogress nounwind uwtable
define linkonce_odr hidden noundef ptr @_ZNKSt10unique_ptrIA_N4llvm10Dependence7DVEntryESt14default_deleteIS3_EE3getEv(ptr noundef nonnull align 8 dereferenceable(8) %0) #1 comdat align 2 {
  %2 = alloca ptr, align 8
  store ptr %0, ptr %2, align 8
  %3 = load ptr, ptr %2, align 8
  %4 = getelementptr inbounds nuw %"class.std::unique_ptr.176", ptr %3, i32 0, i32 0
  %5 = call noundef ptr @_ZNKSt15__uniq_ptr_implIN4llvm10Dependence7DVEntryESt14default_deleteIA_S2_EE6_M_ptrEv(ptr noundef nonnull align 8 dereferenceable(8) %4) #2
  ret ptr %5
}

; Function Attrs: mustprogress nounwind uwtable
define linkonce_odr hidden noundef nonnull align 8 dereferenceable(16) ptr @_ZNKSt10unique_ptrIA_N4llvm10Dependence7DVEntryESt14default_deleteIS3_EEixEm(ptr noundef nonnull align 8 dereferenceable(8) %0, i64 noundef %1) #1 comdat align 2 {
  %3 = alloca ptr, align 8
  %4 = alloca i64, align 8
  store ptr %0, ptr %3, align 8
  store i64 %1, ptr %4, align 8
  %5 = load ptr, ptr %3, align 8
  br label %6

6:                                                ; preds = %2
  br label %7

7:                                                ; preds = %6
  %8 = call noundef ptr @_ZNKSt10unique_ptrIA_N4llvm10Dependence7DVEntryESt14default_deleteIS3_EE3getEv(ptr noundef nonnull align 8 dereferenceable(8) %5) #2
  %9 = load i64, ptr %4, align 8
  %10 = getelementptr inbounds %"struct.llvm::Dependence::DVEntry", ptr %8, i64 %9
  ret ptr %10
}

; Function Attrs: mustprogress nounwind uwtable
define linkonce_odr void @_ZSt4swapIPN4llvm11InstructionEENSt9enable_ifIXsr6__and_ISt6__not_ISt15__is_tuple_likeIT_EESt21is_move_constructibleIS6_ESt18is_move_assignableIS6_EEE5valueEvE4typeERS6_SF_(ptr noundef nonnull align 8 dereferenceable(8) %0, ptr noundef nonnull align 8 dereferenceable(8) %1) #1 comdat {
  %3 = alloca ptr, align 8
  %4 = alloca ptr, align 8
  %5 = alloca ptr, align 8
  store ptr %0, ptr %3, align 8
  store ptr %1, ptr %4, align 8
  %6 = load ptr, ptr %3, align 8
  %7 = load ptr, ptr %6, align 8
  store ptr %7, ptr %5, align 8
  %8 = load ptr, ptr %4, align 8
  %9 = load ptr, ptr %8, align 8
  %10 = load ptr, ptr %3, align 8
  store ptr %9, ptr %10, align 8
  %11 = load ptr, ptr %5, align 8
  %12 = load ptr, ptr %4, align 8
  store ptr %11, ptr %12, align 8
  ret void
}

; Function Attrs: mustprogress nounwind uwtable
define dso_local noundef zeroext i1 @_ZNK4llvm14FullDependence19isDirectionNegativeEv(ptr noundef nonnull align 8 dereferenceable(56) %0) unnamed_addr #1 align 2 {
  %2 = alloca i1, align 1
  %3 = alloca ptr, align 8
  %4 = alloca i32, align 4
  %5 = alloca i8, align 1
  store ptr %0, ptr %3, align 8
  %6 = load ptr, ptr %3, align 8
  store i32 1, ptr %4, align 4
  br label %7

7:                                                ; preds = %35, %1
  %8 = load i32, ptr %4, align 4
  %9 = getelementptr inbounds nuw %"class.llvm::FullDependence", ptr %6, i32 0, i32 1
  %10 = load i16, ptr %9, align 8
  %11 = zext i16 %10 to i32
  %12 = icmp ule i32 %8, %11
  br i1 %12, label %13, label %38

13:                                               ; preds = %7
  %14 = getelementptr inbounds nuw %"class.llvm::FullDependence", ptr %6, i32 0, i32 4
  %15 = load i32, ptr %4, align 4
  %16 = sub i32 %15, 1
  %17 = zext i32 %16 to i64
  %18 = call noundef nonnull align 8 dereferenceable(16) ptr @_ZNKSt10unique_ptrIA_N4llvm10Dependence7DVEntryESt14default_deleteIS3_EEixEm(ptr noundef nonnull align 8 dereferenceable(8) %14, i64 noundef %17)
  %19 = load i8, ptr %18, align 8
  %20 = and i8 %19, 7
  store i8 %20, ptr %5, align 1
  %21 = load i8, ptr %5, align 1
  %22 = zext i8 %21 to i32
  %23 = icmp eq i32 %22, 2
  br i1 %23, label %24, label %25

24:                                               ; preds = %13
  br label %35

25:                                               ; preds = %13
  %26 = load i8, ptr %5, align 1
  %27 = zext i8 %26 to i32
  %28 = icmp eq i32 %27, 4
  br i1 %28, label %33, label %29

29:                                               ; preds = %25
  %30 = load i8, ptr %5, align 1
  %31 = zext i8 %30 to i32
  %32 = icmp eq i32 %31, 6
  br i1 %32, label %33, label %34

33:                                               ; preds = %29, %25
  store i1 true, ptr %2, align 1
  br label %39

34:                                               ; preds = %29
  store i1 false, ptr %2, align 1
  br label %39

35:                                               ; preds = %24
  %36 = load i32, ptr %4, align 4
  %37 = add i32 %36, 1
  store i32 %37, ptr %4, align 4
  br label %7, !llvm.loop !8

38:                                               ; preds = %7
  store i1 false, ptr %2, align 1
  br label %39

39:                                               ; preds = %38, %34, %33
  %40 = load i1, ptr %2, align 1
  ret i1 %40
}

; Function Attrs: mustprogress nounwind uwtable
define dso_local noundef zeroext i1 @_ZN4llvm14FullDependence9normalizeEPNS_15ScalarEvolutionE(ptr noundef nonnull align 8 dereferenceable(56) %0, ptr noundef %1) unnamed_addr #1 align 2 {
  %3 = alloca i1, align 1
  %4 = alloca ptr, align 8
  %5 = alloca ptr, align 8
  %6 = alloca i32, align 4
  %7 = alloca i8, align 1
  %8 = alloca i8, align 1
  store ptr %0, ptr %4, align 8
  store ptr %1, ptr %5, align 8
  %9 = load ptr, ptr %4, align 8
  %10 = call noundef zeroext i1 @_ZNK4llvm14FullDependence19isDirectionNegativeEv(ptr noundef nonnull align 8 dereferenceable(56) %9)
  br i1 %10, label %12, label %11

11:                                               ; preds = %2
  store i1 false, ptr %3, align 1
  br label %96

12:                                               ; preds = %2
  br label %13

13:                                               ; preds = %12
  br label %14

14:                                               ; preds = %13
  %15 = getelementptr inbounds nuw %"class.llvm::Dependence", ptr %9, i32 0, i32 1
  %16 = getelementptr inbounds nuw %"class.llvm::Dependence", ptr %9, i32 0, i32 2
  call void @_ZSt4swapIPN4llvm11InstructionEENSt9enable_ifIXsr6__and_ISt6__not_ISt15__is_tuple_likeIT_EESt21is_move_constructibleIS6_ESt18is_move_assignableIS6_EEE5valueEvE4typeERS6_SF_(ptr noundef nonnull align 8 dereferenceable(8) %15, ptr noundef nonnull align 8 dereferenceable(8) %16) #2
  store i32 1, ptr %6, align 4
  br label %17

17:                                               ; preds = %90, %14
  %18 = load i32, ptr %6, align 4
  %19 = getelementptr inbounds nuw %"class.llvm::FullDependence", ptr %9, i32 0, i32 1
  %20 = load i16, ptr %19, align 8
  %21 = zext i16 %20 to i32
  %22 = icmp ule i32 %18, %21
  br i1 %22, label %23, label %93

23:                                               ; preds = %17
  %24 = getelementptr inbounds nuw %"class.llvm::FullDependence", ptr %9, i32 0, i32 4
  %25 = load i32, ptr %6, align 4
  %26 = sub i32 %25, 1
  %27 = zext i32 %26 to i64
  %28 = call noundef nonnull align 8 dereferenceable(16) ptr @_ZNKSt10unique_ptrIA_N4llvm10Dependence7DVEntryESt14default_deleteIS3_EEixEm(ptr noundef nonnull align 8 dereferenceable(8) %24, i64 noundef %27)
  %29 = load i8, ptr %28, align 8
  %30 = and i8 %29, 7
  store i8 %30, ptr %7, align 1
  %31 = load i8, ptr %7, align 1
  %32 = zext i8 %31 to i32
  %33 = and i32 %32, 2
  %34 = trunc i32 %33 to i8
  store i8 %34, ptr %8, align 1
  %35 = load i8, ptr %7, align 1
  %36 = zext i8 %35 to i32
  %37 = and i32 %36, 1
  %38 = icmp ne i32 %37, 0
  br i1 %38, label %39, label %44

39:                                               ; preds = %23
  %40 = load i8, ptr %8, align 1
  %41 = zext i8 %40 to i32
  %42 = or i32 %41, 4
  %43 = trunc i32 %42 to i8
  store i8 %43, ptr %8, align 1
  br label %44

44:                                               ; preds = %39, %23
  %45 = load i8, ptr %7, align 1
  %46 = zext i8 %45 to i32
  %47 = and i32 %46, 4
  %48 = icmp ne i32 %47, 0
  br i1 %48, label %49, label %54

49:                                               ; preds = %44
  %50 = load i8, ptr %8, align 1
  %51 = zext i8 %50 to i32
  %52 = or i32 %51, 1
  %53 = trunc i32 %52 to i8
  store i8 %53, ptr %8, align 1
  br label %54

54:                                               ; preds = %49, %44
  %55 = load i8, ptr %8, align 1
  %56 = getelementptr inbounds nuw %"class.llvm::FullDependence", ptr %9, i32 0, i32 4
  %57 = load i32, ptr %6, align 4
  %58 = sub i32 %57, 1
  %59 = zext i32 %58 to i64
  %60 = call noundef nonnull align 8 dereferenceable(16) ptr @_ZNKSt10unique_ptrIA_N4llvm10Dependence7DVEntryESt14default_deleteIS3_EEixEm(ptr noundef nonnull align 8 dereferenceable(8) %56, i64 noundef %59)
  %61 = load i8, ptr %60, align 8
  %62 = and i8 %55, 7
  %63 = and i8 %61, -8
  %64 = or i8 %63, %62
  store i8 %64, ptr %60, align 8
  %65 = getelementptr inbounds nuw %"class.llvm::FullDependence", ptr %9, i32 0, i32 4
  %66 = load i32, ptr %6, align 4
  %67 = sub i32 %66, 1
  %68 = zext i32 %67 to i64
  %69 = call noundef nonnull align 8 dereferenceable(16) ptr @_ZNKSt10unique_ptrIA_N4llvm10Dependence7DVEntryESt14default_deleteIS3_EEixEm(ptr noundef nonnull align 8 dereferenceable(8) %65, i64 noundef %68)
  %70 = getelementptr inbounds nuw %"struct.llvm::Dependence::DVEntry", ptr %69, i32 0, i32 1
  %71 = load ptr, ptr %70, align 8
  %72 = icmp ne ptr %71, null
  br i1 %72, label %73, label %89

73:                                               ; preds = %54
  %74 = load ptr, ptr %5, align 8
  %75 = getelementptr inbounds nuw %"class.llvm::FullDependence", ptr %9, i32 0, i32 4
  %76 = load i32, ptr %6, align 4
  %77 = sub i32 %76, 1
  %78 = zext i32 %77 to i64
  %79 = call noundef nonnull align 8 dereferenceable(16) ptr @_ZNKSt10unique_ptrIA_N4llvm10Dependence7DVEntryESt14default_deleteIS3_EEixEm(ptr noundef nonnull align 8 dereferenceable(8) %75, i64 noundef %78)
  %80 = getelementptr inbounds nuw %"struct.llvm::Dependence::DVEntry", ptr %79, i32 0, i32 1
  %81 = load ptr, ptr %80, align 8
  %82 = call noundef ptr @_ZN4llvm15ScalarEvolution15getNegativeSCEVEPKNS_4SCEVENS1_11NoWrapFlagsE(ptr noundef nonnull align 8 dereferenceable(1392) %74, ptr noundef %81, i32 noundef 0)
  %83 = getelementptr inbounds nuw %"class.llvm::FullDependence", ptr %9, i32 0, i32 4
  %84 = load i32, ptr %6, align 4
  %85 = sub i32 %84, 1
  %86 = zext i32 %85 to i64
  %87 = call noundef nonnull align 8 dereferenceable(16) ptr @_ZNKSt10unique_ptrIA_N4llvm10Dependence7DVEntryESt14default_deleteIS3_EEixEm(ptr noundef nonnull align 8 dereferenceable(8) %83, i64 noundef %86)
  %88 = getelementptr inbounds nuw %"struct.llvm::Dependence::DVEntry", ptr %87, i32 0, i32 1
  store ptr %82, ptr %88, align 8
  br label %89

89:                                               ; preds = %73, %54
  br label %90

90:                                               ; preds = %89
  %91 = load i32, ptr %6, align 4
  %92 = add i32 %91, 1
  store i32 %92, ptr %6, align 4
  br label %17, !llvm.loop !9

93:                                               ; preds = %17
  br label %94

94:                                               ; preds = %93
  br label %95

95:                                               ; preds = %94
  store i1 true, ptr %3, align 1
  br label %96

96:                                               ; preds = %95, %11
  %97 = load i1, ptr %3, align 1
  ret i1 %97
}