; Function Attrs: mustprogress nounwind uwtable
define dso_local noundef zeroext i1 @_ZN4llvm14FullDependence9normalizeEPNS_15ScalarEvolutionE(ptr nocapture noundef nonnull align 8 dereferenceable(56) %0, ptr noundef %1) unnamed_addr #0 align 2 {
  %3 = getelementptr inbounds nuw i8, ptr %0, i64 40
  %4 = load i16, ptr %3, align 8
  %.not11.i = icmp eq i16 %4, 0
  br i1 %.not11.i, label %_ZNK4llvm14FullDependence19isDirectionNegativeEv.exit.thread, label %.lr.ph.i

.lr.ph.i:                                         ; preds = %2
  %5 = zext i16 %4 to i64
  %6 = getelementptr inbounds nuw i8, ptr %0, i64 48
  %7 = load ptr, ptr %6, align 8
  %invariant.gep.i = getelementptr i8, ptr %7, i64 -16
  br label %9

8:                                                ; preds = %9
  %indvars.iv.next.i = add nuw nsw i64 %indvars.iv.i, 1
  %exitcond.not.i = icmp eq i64 %indvars.iv.i, %5
  br i1 %exitcond.not.i, label %_ZNK4llvm14FullDependence19isDirectionNegativeEv.exit.thread, label %9, !llvm.loop !21

9:                                                ; preds = %8, %.lr.ph.i
  %indvars.iv.i = phi i64 [ 1, %.lr.ph.i ], [ %indvars.iv.next.i, %8 ]
  %gep.i = getelementptr %"struct.llvm::Dependence::DVEntry", ptr %invariant.gep.i, i64 %indvars.iv.i
  %10 = load i8, ptr %gep.i, align 8
  %11 = and i8 %10, 7
  %12 = icmp eq i8 %11, 2
  br i1 %12, label %8, label %_ZNK4llvm14FullDependence19isDirectionNegativeEv.exit

_ZNK4llvm14FullDependence19isDirectionNegativeEv.exit: ; preds = %9
  %13 = and i8 %10, 5
  %or.cond.i = icmp eq i8 %13, 4
  br i1 %or.cond.i, label %.lr.ph, label %_ZNK4llvm14FullDependence19isDirectionNegativeEv.exit.thread

.lr.ph:                                           ; preds = %_ZNK4llvm14FullDependence19isDirectionNegativeEv.exit
  %14 = getelementptr inbounds nuw i8, ptr %0, i64 8
  %15 = getelementptr inbounds nuw i8, ptr %0, i64 16
  %16 = load ptr, ptr %14, align 8
  %17 = load ptr, ptr %15, align 8
  store ptr %17, ptr %14, align 8
  store ptr %16, ptr %15, align 8
  br label %18

18:                                               ; preds = %.lr.ph, %32
  %indvars.iv = phi i64 [ 1, %.lr.ph ], [ %indvars.iv.next, %32 ]
  %19 = add nsw i64 %indvars.iv, -1
  %20 = load ptr, ptr %6, align 8
  %21 = getelementptr inbounds %"struct.llvm::Dependence::DVEntry", ptr %20, i64 %19
  %22 = load i8, ptr %21, align 8
  %trunc22 = trunc i8 %22 to i3
  %rev = tail call i3 @llvm.bitreverse.i3(i3 %trunc22)
  %.1 = zext i3 %rev to i8
  %23 = and i8 %22, -8
  %24 = or disjoint i8 %23, %.1
  store i8 %24, ptr %21, align 8
  %25 = load ptr, ptr %6, align 8
  %26 = getelementptr inbounds %"struct.llvm::Dependence::DVEntry", ptr %25, i64 %19, i32 1
  %27 = load ptr, ptr %26, align 8
  %.not19 = icmp eq ptr %27, null
  br i1 %.not19, label %32, label %28

28:                                               ; preds = %18
  %29 = tail call noundef ptr @_ZN4llvm15ScalarEvolution15getNegativeSCEVEPKNS_4SCEVENS1_11NoWrapFlagsE(ptr noundef nonnull align 8 dereferenceable(1392) %1, ptr noundef nonnull %27, i32 noundef 0) #23
  %30 = load ptr, ptr %6, align 8
  %31 = getelementptr inbounds %"struct.llvm::Dependence::DVEntry", ptr %30, i64 %19, i32 1
  store ptr %29, ptr %31, align 8
  br label %32

32:                                               ; preds = %18, %28
  %indvars.iv.next = add nuw nsw i64 %indvars.iv, 1
  %33 = load i16, ptr %3, align 8
  %34 = zext i16 %33 to i64
  %.not.not = icmp ult i64 %indvars.iv, %34
  br i1 %.not.not, label %18, label %_ZNK4llvm14FullDependence19isDirectionNegativeEv.exit.thread, !llvm.loop !22

_ZNK4llvm14FullDependence19isDirectionNegativeEv.exit.thread: ; preds = %8, %32, %2, %_ZNK4llvm14FullDependence19isDirectionNegativeEv.exit
  %.0.i21 = phi i1 [ false, %_ZNK4llvm14FullDependence19isDirectionNegativeEv.exit ], [ false, %2 ], [ true, %32 ], [ false, %8 ]
  ret i1 %.0.i21
}